target datalayout = "e-m:e-p270:32:32-p271:32:32-p272:64:64-i64:64-i128:128-f80:128-n8:16:32:64-S128"
target triple = "x86_64-pc-linux-gnu"

%struct.H5G_dense_bt2_name_rec_t = type { [7 x i8], i32 }
%struct.H5G_bt2_ud_it_t = type { ptr, ptr, i64, i64, ptr, ptr, i32 }
%struct.H5G_fh_ud_it_t = type { ptr, ptr }

@.str = private unnamed_addr constant [102 x i8] c"generated/home/dtcxzyw/WorkSpace/Projects/compilers/llvm-opt-benchmark/bench/hdf5/hdf5/src/H5Gdense.c\00", align 1
@H5E_SYM_g = external global i64, align 8
@H5E_CANTNEXT_g = external global i64, align 8
@.str.33 = private unnamed_addr constant [26 x i8] c"iteration operator failed\00", align 1
@H5E_CANTOPERATE_g = external global i64, align 8
@__func__.H5G__dense_iterate_bt2_cb = private unnamed_addr constant [26 x i8] c"H5G__dense_iterate_bt2_cb\00", align 1
@.str.43 = private unnamed_addr constant [24 x i8] c"heap op callback failed\00", align 1

; Function Attrs: nounwind uwtable
define internal i32 @H5G__dense_iterate_bt2_cb(ptr noundef %0, ptr noundef %1) #0 {
  %3 = alloca ptr, align 8
  %4 = alloca ptr, align 8
  %5 = alloca ptr, align 8
  %6 = alloca ptr, align 8
  %7 = alloca i32, align 4
  %8 = alloca i8, align 1
  %9 = alloca %struct.H5G_fh_ud_it_t, align 8
  store ptr %0, ptr %3, align 8
  store ptr %1, ptr %4, align 8
  %10 = load ptr, ptr %3, align 8
  store ptr %10, ptr %5, align 8
  %11 = load ptr, ptr %4, align 8
  store ptr %11, ptr %6, align 8
  store i32 0, ptr %7, align 4
  store i8 0, ptr %8, align 1
  %12 = load ptr, ptr %6, align 8
  %13 = getelementptr inbounds %struct.H5G_bt2_ud_it_t, ptr %12, i32 0, i32 3
  %14 = load i64, ptr %13, align 8
  %15 = icmp ugt i64 %14, 0
  br i1 %15, label %16, label %21

16:                                               ; preds = %2
  %17 = load ptr, ptr %6, align 8
  %18 = getelementptr inbounds %struct.H5G_bt2_ud_it_t, ptr %17, i32 0, i32 3
  %19 = load i64, ptr %18, align 8
  %20 = add i64 %19, -1
  store i64 %20, ptr %18, align 8
  br label %62

21:                                               ; preds = %2
  %22 = load ptr, ptr %6, align 8
  %23 = getelementptr inbounds %struct.H5G_bt2_ud_it_t, ptr %22, i32 0, i32 0
  %24 = load ptr, ptr %23, align 8
  %25 = getelementptr inbounds %struct.H5G_fh_ud_it_t, ptr %9, i32 0, i32 0
  store ptr %24, ptr %25, align 8
  %26 = load ptr, ptr %6, align 8
  %27 = getelementptr inbounds %struct.H5G_bt2_ud_it_t, ptr %26, i32 0, i32 1
  %28 = load ptr, ptr %27, align 8
  %29 = load ptr, ptr %5, align 8
  %30 = getelementptr inbounds %struct.H5G_dense_bt2_name_rec_t, ptr %29, i32 0, i32 0
  %31 = getelementptr inbounds [7 x i8], ptr %30, i64 0, i64 0
  %32 = call i32 @H5HF_op(ptr noundef %28, ptr noundef %31, ptr noundef @H5G__dense_iterate_fh_cb, ptr noundef %9)
  %33 = icmp slt i32 %32, 0
  br i1 %33, label %34, label %49

34:                                               ; preds = %21
  br label %35

35:                                               ; preds = %34
  br label %36

36:                                               ; preds = %35
  br label %37

37:                                               ; preds = %36
  %38 = load i64, ptr @H5E_SYM_g, align 8
  %39 = load i64, ptr @H5E_CANTOPERATE_g, align 8
  %40 = call i32 (ptr, ptr, i32, i64, i64, ptr, ...) @H5E_printf_stack(ptr noundef @.str, ptr noundef @__func__.H5G__dense_iterate_bt2_cb, i32 noundef 851, i64 noundef %38, i64 noundef %39, ptr noundef @.str.43)
  br label %41

41:                                               ; preds = %37
  store i8 1, ptr %8, align 1
  %42 = load i8, ptr %8, align 1
  %43 = trunc i8 %42 to i1
  %44 = zext i1 %43 to i8
  store i8 %44, ptr %8, align 1
  br label %45

45:                                               ; preds = %41
  br label %46

46:                                               ; preds = %45
  store i32 -1, ptr %7, align 4
  br label %76

47:                                               ; No predecessors!
  br label %48

48:                                               ; preds = %47
  br label %49

49:                                               ; preds = %48, %21
  %50 = load ptr, ptr %6, align 8
  %51 = getelementptr inbounds %struct.H5G_bt2_ud_it_t, ptr %50, i32 0, i32 4
  %52 = load ptr, ptr %51, align 8
  %53 = getelementptr inbounds %struct.H5G_fh_ud_it_t, ptr %9, i32 0, i32 1
  %54 = load ptr, ptr %53, align 8
  %55 = load ptr, ptr %6, align 8
  %56 = getelementptr inbounds %struct.H5G_bt2_ud_it_t, ptr %55, i32 0, i32 5
  %57 = load ptr, ptr %56, align 8
  %58 = call i32 %52(ptr noundef %54, ptr noundef %57)
  store i32 %58, ptr %7, align 4
  %59 = getelementptr inbounds %struct.H5G_fh_ud_it_t, ptr %9, i32 0, i32 1
  %60 = load ptr, ptr %59, align 8
  %61 = call ptr @H5O_msg_free(i32 noundef 6, ptr noundef %60)
  br label %62

62:                                               ; preds = %49, %16
  %63 = load ptr, ptr %6, align 8
  %64 = getelementptr inbounds %struct.H5G_bt2_ud_it_t, ptr %63, i32 0, i32 2
  %65 = load i64, ptr %64, align 8
  %66 = add i64 %65, 1
  store i64 %66, ptr %64, align 8
  %67 = load i32, ptr %7, align 4
  %68 = icmp slt i32 %67, 0
  br i1 %68, label %69, label %75

69:                                               ; preds = %62
  br label %70

70:                                               ; preds = %69
  %71 = load i64, ptr @H5E_SYM_g, align 8
  %72 = load i64, ptr @H5E_CANTNEXT_g, align 8
  %73 = call i32 (ptr, ptr, i32, i64, i64, ptr, ...) @H5E_printf_stack(ptr noundef @.str, ptr noundef @__func__.H5G__dense_iterate_bt2_cb, i32 noundef 866, i64 noundef %71, i64 noundef %72, ptr noundef @.str.33)
  br label %74

74:                                               ; preds = %70
  br label %75

75:                                               ; preds = %74, %62
  br label %76

76:                                               ; preds = %75, %46
  %77 = load i32, ptr %7, align 4
  ret i32 %77
}