; Function Attrs: nounwind uwtable
define internal i32 @H5G__dense_iterate_bt2_cb(ptr noundef %0, ptr nocapture noundef %1) #0 {
  %3 = alloca %struct.H5G_fh_ud_it_t, align 8
  %4 = getelementptr inbounds i8, ptr %1, i64 24
  %5 = load i64, ptr %4, align 8
  %.not = icmp eq i64 %5, 0
  br i1 %.not, label %10, label %.thread

.thread:                                          ; preds = %2
  %6 = add i64 %5, -1
  store i64 %6, ptr %4, align 8
  %7 = getelementptr inbounds i8, ptr %1, i64 16
  %8 = load i64, ptr %7, align 8
  %9 = add i64 %8, 1
  store i64 %9, ptr %7, align 8
  br label %38

10:                                               ; preds = %2
  %11 = load ptr, ptr %1, align 8
  store ptr %11, ptr %3, align 8
  %12 = getelementptr inbounds i8, ptr %1, i64 8
  %13 = load ptr, ptr %12, align 8
  %14 = call i32 @H5HF_op(ptr noundef %13, ptr noundef %0, ptr noundef nonnull @H5G__dense_iterate_fh_cb, ptr noundef nonnull %3) #8
  %15 = icmp slt i32 %14, 0
  br i1 %15, label %16, label %20

16:                                               ; preds = %10
  %17 = load i64, ptr @H5E_SYM_g, align 8
  %18 = load i64, ptr @H5E_CANTOPERATE_g, align 8
  %19 = call i32 (ptr, ptr, i32, i64, i64, ptr, ...) @H5E_printf_stack(ptr noundef nonnull @.str, ptr noundef nonnull @__func__.H5G__dense_iterate_bt2_cb, i32 noundef 851, i64 noundef %17, i64 noundef %18, ptr noundef nonnull @.str.43) #8
  br label %38

20:                                               ; preds = %10
  %21 = getelementptr inbounds i8, ptr %1, i64 32
  %22 = load ptr, ptr %21, align 8
  %23 = getelementptr inbounds i8, ptr %3, i64 8
  %24 = load ptr, ptr %23, align 8
  %25 = getelementptr inbounds i8, ptr %1, i64 40
  %26 = load ptr, ptr %25, align 8
  %27 = call i32 %22(ptr noundef %24, ptr noundef %26) #8
  %28 = load ptr, ptr %23, align 8
  %29 = call ptr @H5O_msg_free(i32 noundef 6, ptr noundef %28) #8
  %30 = getelementptr inbounds i8, ptr %1, i64 16
  %31 = load i64, ptr %30, align 8
  %32 = add i64 %31, 1
  store i64 %32, ptr %30, align 8
  %33 = icmp slt i32 %27, 0
  br i1 %33, label %34, label %38

34:                                               ; preds = %20
  %35 = load i64, ptr @H5E_SYM_g, align 8
  %36 = load i64, ptr @H5E_CANTNEXT_g, align 8
  %37 = call i32 (ptr, ptr, i32, i64, i64, ptr, ...) @H5E_printf_stack(ptr noundef nonnull @.str, ptr noundef nonnull @__func__.H5G__dense_iterate_bt2_cb, i32 noundef 866, i64 noundef %35, i64 noundef %36, ptr noundef nonnull @.str.33) #8
  br label %38

38:                                               ; preds = %.thread, %20, %34, %16
  %.1 = phi i32 [ %27, %34 ], [ %27, %20 ], [ -1, %16 ], [ 0, %.thread ]
  ret i32 %.1
}